target datalayout = "e-m:e-p270:32:32-p271:32:32-p272:64:64-i64:64-i128:128-f80:128-n8:16:32:64-S128"
target triple = "x86_64-pc-linux-gnu"

%struct.Qureg = type { i32, i32, i32, i64, i64, i32, i32, %struct.ComplexArray, %struct.ComplexArray, %struct.ComplexArray, ptr, ptr, ptr, ptr, ptr, ptr }
%struct.ComplexArray = type { ptr, ptr }
%struct.QASMLogger = type { ptr, i32, i32, i32 }

@__func__.addStringToQASM = private unnamed_addr constant [16 x i8] c"addStringToQASM\00", align 1
@.str.3 = private unnamed_addr constant [3 x i8] c"%s\00", align 1
@.str.53 = private unnamed_addr constant [24 x i8] c"  though with overrides\00", align 1
@getPhaseFuncSymbol.xyz = internal global [7 x i8] c"xyztrvu", align 1
@getPhaseFuncSymbol.abc = internal global [24 x i8] c"abcdefghjklmnpqrstuvwxyz", align 16
@__func__.getPhaseFuncSymbol = private unnamed_addr constant [19 x i8] c"getPhaseFuncSymbol\00", align 1
@.str.59 = private unnamed_addr constant [9 x i8] c"//     |\00", align 1
@.str.60 = private unnamed_addr constant [10 x i8] c"%c=%lld, \00", align 1
@.str.61 = private unnamed_addr constant [9 x i8] c"%c=%lld>\00", align 1
@.str.62 = private unnamed_addr constant [11 x i8] c"x%d=%lld, \00", align 1
@.str.63 = private unnamed_addr constant [10 x i8] c"x%d=%lld>\00", align 1
@.str.64 = private unnamed_addr constant [18 x i8] c" -> exp(i %.14g)\0A\00", align 1
@.str.65 = private unnamed_addr constant [20 x i8] c" -> exp(i (%.14g))\0A\00", align 1
@__func__.addMultiVarOverridesToQASM = private unnamed_addr constant [27 x i8] c"addMultiVarOverridesToQASM\00", align 1

; Function Attrs: nounwind uwtable
define void @addStringToQASM(ptr noundef byval(%struct.Qureg) align 8 %0, ptr noundef %1, i32 noundef %2) #0 {
  %4 = alloca ptr, align 8
  %5 = alloca i32, align 4
  %6 = alloca ptr, align 8
  %7 = alloca i32, align 4
  %8 = alloca i32, align 4
  %9 = alloca i32, align 4
  %10 = alloca ptr, align 8
  %11 = alloca i32, align 4
  store ptr %1, ptr %4, align 8, !tbaa !24
  store i32 %2, ptr %5, align 4, !tbaa !25
  call void @llvm.lifetime.start.p0(i64 8, ptr %6) #7
  %12 = getelementptr inbounds nuw %struct.Qureg, ptr %0, i32 0, i32 15
  %13 = load ptr, ptr %12, align 8, !tbaa !10
  %14 = getelementptr inbounds nuw %struct.QASMLogger, ptr %13, i32 0, i32 0
  %15 = load ptr, ptr %14, align 8, !tbaa !21
  store ptr %15, ptr %6, align 8, !tbaa !24
  call void @llvm.lifetime.start.p0(i64 4, ptr %7) #7
  %16 = getelementptr inbounds nuw %struct.Qureg, ptr %0, i32 0, i32 15
  %17 = load ptr, ptr %16, align 8, !tbaa !10
  %18 = getelementptr inbounds nuw %struct.QASMLogger, ptr %17, i32 0, i32 1
  %19 = load i32, ptr %18, align 8, !tbaa !20
  store i32 %19, ptr %7, align 4, !tbaa !25
  call void @llvm.lifetime.start.p0(i64 4, ptr %8) #7
  %20 = getelementptr inbounds nuw %struct.Qureg, ptr %0, i32 0, i32 15
  %21 = load ptr, ptr %20, align 8, !tbaa !10
  %22 = getelementptr inbounds nuw %struct.QASMLogger, ptr %21, i32 0, i32 2
  %23 = load i32, ptr %22, align 4, !tbaa !23
  store i32 %23, ptr %8, align 4, !tbaa !25
  %24 = load i32, ptr %5, align 4, !tbaa !25
  %25 = load i32, ptr %8, align 4, !tbaa !25
  %26 = add nsw i32 %24, %25
  %27 = load i32, ptr %7, align 4, !tbaa !25
  %28 = icmp sgt i32 %26, %27
  br i1 %28, label %29, label %57

29:                                               ; preds = %3
  call void @llvm.lifetime.start.p0(i64 4, ptr %9) #7
  %30 = load i32, ptr %7, align 4, !tbaa !25
  %31 = mul nsw i32 2, %30
  store i32 %31, ptr %9, align 4, !tbaa !25
  %32 = load i32, ptr %5, align 4, !tbaa !25
  %33 = load i32, ptr %8, align 4, !tbaa !25
  %34 = add nsw i32 %32, %33
  %35 = load i32, ptr %9, align 4, !tbaa !25
  %36 = icmp sgt i32 %34, %35
  br i1 %36, label %37, label %38

37:                                               ; preds = %29
  call void @raiseQASMBufferOverflow(ptr noundef @__func__.addStringToQASM)
  br label %38

38:                                               ; preds = %37, %29
  call void @llvm.lifetime.start.p0(i64 8, ptr %10) #7
  %39 = load i32, ptr %9, align 4, !tbaa !25
  %40 = sext i32 %39 to i64
  %41 = mul i64 %40, 1
  %42 = call noalias ptr @malloc(i64 noundef %41) #8
  store ptr %42, ptr %10, align 8, !tbaa !24
  %43 = load ptr, ptr %10, align 8, !tbaa !24
  %44 = load ptr, ptr %6, align 8, !tbaa !24
  %45 = call i32 (ptr, ptr, ...) @sprintf(ptr noundef %43, ptr noundef @.str.3, ptr noundef %44) #7
  %46 = load ptr, ptr %6, align 8, !tbaa !24
  call void @free(ptr noundef %46) #7
  %47 = load i32, ptr %9, align 4, !tbaa !25
  %48 = getelementptr inbounds nuw %struct.Qureg, ptr %0, i32 0, i32 15
  %49 = load ptr, ptr %48, align 8, !tbaa !10
  %50 = getelementptr inbounds nuw %struct.QASMLogger, ptr %49, i32 0, i32 1
  store i32 %47, ptr %50, align 8, !tbaa !20
  %51 = load ptr, ptr %10, align 8, !tbaa !24
  %52 = getelementptr inbounds nuw %struct.Qureg, ptr %0, i32 0, i32 15
  %53 = load ptr, ptr %52, align 8, !tbaa !10
  %54 = getelementptr inbounds nuw %struct.QASMLogger, ptr %53, i32 0, i32 0
  store ptr %51, ptr %54, align 8, !tbaa !21
  %55 = load i32, ptr %9, align 4, !tbaa !25
  store i32 %55, ptr %7, align 4, !tbaa !25
  %56 = load ptr, ptr %10, align 8, !tbaa !24
  store ptr %56, ptr %6, align 8, !tbaa !24
  call void @llvm.lifetime.end.p0(i64 8, ptr %10) #7
  call void @llvm.lifetime.end.p0(i64 4, ptr %9) #7
  br label %57

57:                                               ; preds = %38, %3
  call void @llvm.lifetime.start.p0(i64 4, ptr %11) #7
  %58 = load ptr, ptr %6, align 8, !tbaa !24
  %59 = load i32, ptr %8, align 4, !tbaa !25
  %60 = sext i32 %59 to i64
  %61 = getelementptr inbounds i8, ptr %58, i64 %60
  %62 = load i32, ptr %7, align 4, !tbaa !25
  %63 = load i32, ptr %8, align 4, !tbaa !25
  %64 = sub nsw i32 %62, %63
  %65 = sext i32 %64 to i64
  %66 = load ptr, ptr %4, align 8, !tbaa !24
  %67 = call i32 (ptr, i64, ptr, ...) @snprintf(ptr noundef %61, i64 noundef %65, ptr noundef @.str.3, ptr noundef %66) #7
  store i32 %67, ptr %11, align 4, !tbaa !25
  %68 = load i32, ptr %11, align 4, !tbaa !25
  %69 = getelementptr inbounds nuw %struct.Qureg, ptr %0, i32 0, i32 15
  %70 = load ptr, ptr %69, align 8, !tbaa !10
  %71 = getelementptr inbounds nuw %struct.QASMLogger, ptr %70, i32 0, i32 2
  %72 = load i32, ptr %71, align 4, !tbaa !23
  %73 = add nsw i32 %72, %68
  store i32 %73, ptr %71, align 4, !tbaa !23
  call void @llvm.lifetime.end.p0(i64 4, ptr %11) #7
  call void @llvm.lifetime.end.p0(i64 4, ptr %8) #7
  call void @llvm.lifetime.end.p0(i64 4, ptr %7) #7
  call void @llvm.lifetime.end.p0(i64 8, ptr %6) #7
  ret void
}

; Function Attrs: nounwind uwtable
define signext i8 @getPhaseFuncSymbol(i32 noundef %0, i32 noundef %1) #0 {
  %3 = alloca i8, align 1
  %4 = alloca i32, align 4
  %5 = alloca i32, align 4
  store i32 %0, ptr %4, align 4, !tbaa !25
  store i32 %1, ptr %5, align 4, !tbaa !25
  %6 = load i32, ptr %4, align 4, !tbaa !25
  %7 = icmp sle i32 %6, 7
  br i1 %7, label %8, label %13

8:                                                ; preds = %2
  %9 = load i32, ptr %5, align 4, !tbaa !25
  %10 = sext i32 %9 to i64
  %11 = getelementptr inbounds [7 x i8], ptr @getPhaseFuncSymbol.xyz, i64 0, i64 %10
  %12 = load i8, ptr %11, align 1, !tbaa !34
  store i8 %12, ptr %3, align 1
  br label %22

13:                                               ; preds = %2
  %14 = load i32, ptr %4, align 4, !tbaa !25
  %15 = icmp sle i32 %14, 24
  br i1 %15, label %16, label %21

16:                                               ; preds = %13
  %17 = load i32, ptr %5, align 4, !tbaa !25
  %18 = sext i32 %17 to i64
  %19 = getelementptr inbounds [24 x i8], ptr @getPhaseFuncSymbol.abc, i64 0, i64 %18
  %20 = load i8, ptr %19, align 1, !tbaa !34
  store i8 %20, ptr %3, align 1
  br label %22

21:                                               ; preds = %13
  call void @raiseQASMBufferOverflow(ptr noundef @__func__.getPhaseFuncSymbol)
  store i8 120, ptr %3, align 1
  br label %22

22:                                               ; preds = %21, %16, %8
  %23 = load i8, ptr %3, align 1
  ret i8 %23
}

; Function Attrs: nounwind uwtable
define void @addMultiVarOverridesToQASM(ptr noundef byval(%struct.Qureg) align 8 %0, i32 noundef %1, ptr noundef %2, ptr noundef %3, i32 noundef %4) #0 {
  %6 = alloca i32, align 4
  %7 = alloca ptr, align 8
  %8 = alloca ptr, align 8
  %9 = alloca i32, align 4
  %10 = alloca [1025 x i8], align 16
  %11 = alloca i32, align 4
  %12 = alloca i32, align 4
  %13 = alloca i32, align 4
  %14 = alloca i32, align 4
  %15 = alloca i32, align 4
  store i32 %1, ptr %6, align 4, !tbaa !25
  store ptr %2, ptr %7, align 8, !tbaa !32
  store ptr %3, ptr %8, align 8, !tbaa !28
  store i32 %4, ptr %9, align 4, !tbaa !25
  call void (ptr, ptr, ...) @qasm_recordComment(ptr noundef byval(%struct.Qureg) align 8 %0, ptr noundef @.str.53)
  call void @llvm.lifetime.start.p0(i64 1025, ptr %10) #7
  call void @llvm.lifetime.start.p0(i64 4, ptr %11) #7
  store i32 0, ptr %11, align 4, !tbaa !25
  call void @llvm.lifetime.start.p0(i64 4, ptr %12) #7
  store i32 0, ptr %12, align 4, !tbaa !25
  call void @llvm.lifetime.start.p0(i64 4, ptr %13) #7
  store i32 0, ptr %13, align 4, !tbaa !25
  br label %16

16:                                               ; preds = %122, %5
  %17 = load i32, ptr %13, align 4, !tbaa !25
  %18 = load i32, ptr %9, align 4, !tbaa !25
  %19 = icmp slt i32 %17, %18
  br i1 %19, label %21, label %20

20:                                               ; preds = %16
  store i32 2, ptr %14, align 4
  call void @llvm.lifetime.end.p0(i64 4, ptr %13) #7
  br label %125

21:                                               ; preds = %16
  store i32 0, ptr %11, align 4, !tbaa !25
  %22 = getelementptr inbounds [1025 x i8], ptr %10, i64 0, i64 0
  %23 = load i32, ptr %11, align 4, !tbaa !25
  %24 = sext i32 %23 to i64
  %25 = getelementptr inbounds i8, ptr %22, i64 %24
  %26 = load i32, ptr %11, align 4, !tbaa !25
  %27 = sub nsw i32 1024, %26
  %28 = sext i32 %27 to i64
  %29 = call i32 (ptr, i64, ptr, ...) @snprintf(ptr noundef %25, i64 noundef %28, ptr noundef @.str.59) #7
  %30 = load i32, ptr %11, align 4, !tbaa !25
  %31 = add nsw i32 %30, %29
  store i32 %31, ptr %11, align 4, !tbaa !25
  call void @llvm.lifetime.start.p0(i64 4, ptr %15) #7
  store i32 0, ptr %15, align 4, !tbaa !25
  br label %32

32:                                               ; preds = %90, %21
  %33 = load i32, ptr %15, align 4, !tbaa !25
  %34 = load i32, ptr %6, align 4, !tbaa !25
  %35 = icmp slt i32 %33, %34
  br i1 %35, label %37, label %36

36:                                               ; preds = %32
  store i32 5, ptr %14, align 4
  call void @llvm.lifetime.end.p0(i64 4, ptr %15) #7
  br label %93

37:                                               ; preds = %32
  %38 = load i32, ptr %6, align 4, !tbaa !25
  %39 = icmp sle i32 %38, 24
  br i1 %39, label %40, label %66

40:                                               ; preds = %37
  %41 = getelementptr inbounds [1025 x i8], ptr %10, i64 0, i64 0
  %42 = load i32, ptr %11, align 4, !tbaa !25
  %43 = sext i32 %42 to i64
  %44 = getelementptr inbounds i8, ptr %41, i64 %43
  %45 = load i32, ptr %11, align 4, !tbaa !25
  %46 = sub nsw i32 1024, %45
  %47 = sext i32 %46 to i64
  %48 = load i32, ptr %15, align 4, !tbaa !25
  %49 = load i32, ptr %6, align 4, !tbaa !25
  %50 = sub nsw i32 %49, 1
  %51 = icmp slt i32 %48, %50
  %52 = select i1 %51, ptr @.str.60, ptr @.str.61
  %53 = load i32, ptr %6, align 4, !tbaa !25
  %54 = load i32, ptr %15, align 4, !tbaa !25
  %55 = call signext i8 @getPhaseFuncSymbol(i32 noundef %53, i32 noundef %54)
  %56 = sext i8 %55 to i32
  %57 = load ptr, ptr %7, align 8, !tbaa !32
  %58 = load i32, ptr %12, align 4, !tbaa !25
  %59 = add nsw i32 %58, 1
  store i32 %59, ptr %12, align 4, !tbaa !25
  %60 = sext i32 %58 to i64
  %61 = getelementptr inbounds i64, ptr %57, i64 %60
  %62 = load i64, ptr %61, align 8, !tbaa !31
  %63 = call i32 (ptr, i64, ptr, ...) @snprintf(ptr noundef %44, i64 noundef %47, ptr noundef %52, i32 noundef %56, i64 noundef %62) #7
  %64 = load i32, ptr %11, align 4, !tbaa !25
  %65 = add nsw i32 %64, %63
  store i32 %65, ptr %11, align 4, !tbaa !25
  br label %89

66:                                               ; preds = %37
  %67 = getelementptr inbounds [1025 x i8], ptr %10, i64 0, i64 0
  %68 = load i32, ptr %11, align 4, !tbaa !25
  %69 = sext i32 %68 to i64
  %70 = getelementptr inbounds i8, ptr %67, i64 %69
  %71 = load i32, ptr %11, align 4, !tbaa !25
  %72 = sub nsw i32 1024, %71
  %73 = sext i32 %72 to i64
  %74 = load i32, ptr %15, align 4, !tbaa !25
  %75 = load i32, ptr %6, align 4, !tbaa !25
  %76 = sub nsw i32 %75, 1
  %77 = icmp slt i32 %74, %76
  %78 = select i1 %77, ptr @.str.62, ptr @.str.63
  %79 = load i32, ptr %15, align 4, !tbaa !25
  %80 = load ptr, ptr %7, align 8, !tbaa !32
  %81 = load i32, ptr %12, align 4, !tbaa !25
  %82 = add nsw i32 %81, 1
  store i32 %82, ptr %12, align 4, !tbaa !25
  %83 = sext i32 %81 to i64
  %84 = getelementptr inbounds i64, ptr %80, i64 %83
  %85 = load i64, ptr %84, align 8, !tbaa !31
  %86 = call i32 (ptr, i64, ptr, ...) @snprintf(ptr noundef %70, i64 noundef %73, ptr noundef %78, i32 noundef %79, i64 noundef %85) #7
  %87 = load i32, ptr %11, align 4, !tbaa !25
  %88 = add nsw i32 %87, %86
  store i32 %88, ptr %11, align 4, !tbaa !25
  br label %89

89:                                               ; preds = %66, %40
  br label %90

90:                                               ; preds = %89
  %91 = load i32, ptr %15, align 4, !tbaa !25
  %92 = add nsw i32 %91, 1
  store i32 %92, ptr %15, align 4, !tbaa !25
  br label %32

93:                                               ; preds = %36
  %94 = getelementptr inbounds [1025 x i8], ptr %10, i64 0, i64 0
  %95 = load i32, ptr %11, align 4, !tbaa !25
  %96 = sext i32 %95 to i64
  %97 = getelementptr inbounds i8, ptr %94, i64 %96
  %98 = load i32, ptr %11, align 4, !tbaa !25
  %99 = sub nsw i32 1024, %98
  %100 = sext i32 %99 to i64
  %101 = load ptr, ptr %8, align 8, !tbaa !28
  %102 = load i32, ptr %13, align 4, !tbaa !25
  %103 = sext i32 %102 to i64
  %104 = getelementptr inbounds double, ptr %101, i64 %103
  %105 = load double, ptr %104, align 8, !tbaa !29
  %106 = fcmp oge double %105, 0.000000e+00
  %107 = select i1 %106, ptr @.str.64, ptr @.str.65
  %108 = load ptr, ptr %8, align 8, !tbaa !28
  %109 = load i32, ptr %13, align 4, !tbaa !25
  %110 = sext i32 %109 to i64
  %111 = getelementptr inbounds double, ptr %108, i64 %110
  %112 = load double, ptr %111, align 8, !tbaa !29
  %113 = call i32 (ptr, i64, ptr, ...) @snprintf(ptr noundef %97, i64 noundef %100, ptr noundef %107, double noundef %112) #7
  %114 = load i32, ptr %11, align 4, !tbaa !25
  %115 = add nsw i32 %114, %113
  store i32 %115, ptr %11, align 4, !tbaa !25
  %116 = load i32, ptr %11, align 4, !tbaa !25
  %117 = icmp sge i32 %116, 1024
  br i1 %117, label %118, label %119

118:                                              ; preds = %93
  call void @raiseQASMBufferOverflow(ptr noundef @__func__.addMultiVarOverridesToQASM)
  br label %119

119:                                              ; preds = %118, %93
  %120 = getelementptr inbounds [1025 x i8], ptr %10, i64 0, i64 0
  %121 = load i32, ptr %11, align 4, !tbaa !25
  call void @addStringToQASM(ptr noundef byval(%struct.Qureg) align 8 %0, ptr noundef %120, i32 noundef %121)
  br label %122

122:                                              ; preds = %119
  %123 = load i32, ptr %13, align 4, !tbaa !25
  %124 = add nsw i32 %123, 1
  store i32 %124, ptr %13, align 4, !tbaa !25
  br label %16

125:                                              ; preds = %20
  call void @llvm.lifetime.end.p0(i64 4, ptr %12) #7
  call void @llvm.lifetime.end.p0(i64 4, ptr %11) #7
  call void @llvm.lifetime.end.p0(i64 1025, ptr %10) #7
  ret void
}