; Function Attrs: nounwind uwtable
define void @addMultiVarOverridesToQASM(ptr noundef readonly byval(%struct.Qureg) align 8 captures(none) %0, i32 noundef %1, ptr noundef readonly captures(none) %2, ptr noundef readonly captures(none) %3, i32 noundef %4) local_unnamed_addr #0 {
  %6 = alloca [1025 x i8], align 16
  tail call void (ptr, ptr, ...) @qasm_recordComment(ptr noundef nonnull byval(%struct.Qureg) align 8 %0, ptr noundef nonnull @.str.53)
  call void @llvm.lifetime.start.p0(i64 1025, ptr nonnull %6) #16
  %7 = icmp sgt i32 %4, 0
  br i1 %7, label %.lr.ph52, label %._crit_edge53

.lr.ph52:                                         ; preds = %5
  %8 = icmp sgt i32 %1, 0
  %9 = icmp slt i32 %1, 25
  %10 = add nsw i32 %1, -1
  %11 = icmp slt i32 %1, 8
  %.sroa.3.0..sroa_idx = getelementptr inbounds nuw i8, ptr %0, i64 128
  %12 = sext i32 %10 to i64
  %wide.trip.count77 = zext nneg i32 %4 to i64
  %wide.trip.count = zext nneg i32 %1 to i64
  %wide.trip.count72 = zext nneg i32 %1 to i64
  br label %13

._crit_edge53:                                    ; preds = %addStringToQASM.exit, %5
  call void @llvm.lifetime.end.p0(i64 1025, ptr nonnull %6) #16
  ret void

13:                                               ; preds = %.lr.ph52, %addStringToQASM.exit
  %indvars.iv74 = phi i64 [ 0, %.lr.ph52 ], [ %indvars.iv.next75, %addStringToQASM.exit ]
  %.03649 = phi i32 [ 0, %.lr.ph52 ], [ %.1.lcssa, %addStringToQASM.exit ]
  call void @llvm.memcpy.p0.p0.i64(ptr noundef nonnull align 16 dereferenceable(9) %6, ptr noundef nonnull align 1 dereferenceable(9) @.str.59, i64 9, i1 false)
  br i1 %8, label %.lr.ph, label %._crit_edge

.lr.ph:                                           ; preds = %13
  %14 = sext i32 %.03649 to i64
  br i1 %9, label %.lr.ph.split.us, label %.lr.ph.split

.lr.ph.split.us:                                  ; preds = %.lr.ph
  br i1 %11, label %getPhaseFuncSymbol.exit.us.us, label %getPhaseFuncSymbol.exit.us

getPhaseFuncSymbol.exit.us.us:                    ; preds = %.lr.ph.split.us, %getPhaseFuncSymbol.exit.us.us
  %indvars.iv67 = phi i64 [ %indvars.iv.next68, %getPhaseFuncSymbol.exit.us.us ], [ %14, %.lr.ph.split.us ]
  %indvars.iv65 = phi i64 [ %indvars.iv.next66, %getPhaseFuncSymbol.exit.us.us ], [ 0, %.lr.ph.split.us ]
  %.03742.us.us = phi i32 [ %.138.us.us, %getPhaseFuncSymbol.exit.us.us ], [ 8, %.lr.ph.split.us ]
  %15 = sext i32 %.03742.us.us to i64
  %16 = getelementptr inbounds i8, ptr %6, i64 %15
  %17 = sub nsw i32 1024, %.03742.us.us
  %18 = sext i32 %17 to i64
  %19 = icmp slt i64 %indvars.iv65, %12
  %20 = select i1 %19, ptr @.str.60, ptr @.str.61
  %21 = getelementptr inbounds nuw [7 x i8], ptr @getPhaseFuncSymbol.xyz, i64 0, i64 %indvars.iv65
  %.0.i.us.us = load i8, ptr %21, align 1, !tbaa !26
  %22 = sext i8 %.0.i.us.us to i32
  %23 = getelementptr inbounds i64, ptr %2, i64 %indvars.iv67
  %24 = load i64, ptr %23, align 8, !tbaa !25
  %25 = call i32 (ptr, i64, ptr, ...) @snprintf(ptr noundef nonnull %16, i64 noundef %18, ptr noundef nonnull %20, i32 noundef %22, i64 noundef %24) #16
  %indvars.iv.next68 = add nsw i64 %indvars.iv67, 1
  %.138.us.us = add nsw i32 %25, %.03742.us.us
  %indvars.iv.next66 = add nuw nsw i64 %indvars.iv65, 1
  %exitcond73.not = icmp eq i64 %indvars.iv.next66, %wide.trip.count72
  br i1 %exitcond73.not, label %._crit_edge.loopexit, label %getPhaseFuncSymbol.exit.us.us

getPhaseFuncSymbol.exit.us:                       ; preds = %.lr.ph.split.us, %getPhaseFuncSymbol.exit.us
  %indvars.iv59 = phi i64 [ %indvars.iv.next60, %getPhaseFuncSymbol.exit.us ], [ %14, %.lr.ph.split.us ]
  %indvars.iv57 = phi i64 [ %indvars.iv.next58, %getPhaseFuncSymbol.exit.us ], [ 0, %.lr.ph.split.us ]
  %.03742.us = phi i32 [ %.138.us, %getPhaseFuncSymbol.exit.us ], [ 8, %.lr.ph.split.us ]
  %26 = sext i32 %.03742.us to i64
  %27 = getelementptr inbounds i8, ptr %6, i64 %26
  %28 = sub nsw i32 1024, %.03742.us
  %29 = sext i32 %28 to i64
  %30 = icmp slt i64 %indvars.iv57, %12
  %31 = select i1 %30, ptr @.str.60, ptr @.str.61
  %32 = getelementptr inbounds nuw [24 x i8], ptr @getPhaseFuncSymbol.abc, i64 0, i64 %indvars.iv57
  %.0.i.us = load i8, ptr %32, align 1, !tbaa !26
  %33 = sext i8 %.0.i.us to i32
  %34 = getelementptr inbounds i64, ptr %2, i64 %indvars.iv59
  %35 = load i64, ptr %34, align 8, !tbaa !25
  %36 = call i32 (ptr, i64, ptr, ...) @snprintf(ptr noundef nonnull %27, i64 noundef %29, ptr noundef nonnull %31, i32 noundef %33, i64 noundef %35) #16
  %indvars.iv.next60 = add nsw i64 %indvars.iv59, 1
  %.138.us = add nsw i32 %36, %.03742.us
  %indvars.iv.next58 = add nuw nsw i64 %indvars.iv57, 1
  %exitcond64.not = icmp eq i64 %indvars.iv.next58, %wide.trip.count
  br i1 %exitcond64.not, label %._crit_edge.loopexit54, label %getPhaseFuncSymbol.exit.us

._crit_edge.loopexit:                             ; preds = %getPhaseFuncSymbol.exit.us.us
  %37 = trunc nsw i64 %indvars.iv.next68 to i32
  br label %._crit_edge

._crit_edge.loopexit54:                           ; preds = %getPhaseFuncSymbol.exit.us
  %38 = trunc nsw i64 %indvars.iv.next60 to i32
  br label %._crit_edge

._crit_edge.loopexit55:                           ; preds = %.lr.ph.split
  %39 = trunc nsw i64 %indvars.iv.next to i32
  br label %._crit_edge

._crit_edge:                                      ; preds = %._crit_edge.loopexit55, %._crit_edge.loopexit54, %._crit_edge.loopexit, %13
  %.037.lcssa = phi i32 [ 8, %13 ], [ %.138.us.us, %._crit_edge.loopexit ], [ %.138.us, %._crit_edge.loopexit54 ], [ %.138, %._crit_edge.loopexit55 ]
  %.1.lcssa = phi i32 [ %.03649, %13 ], [ %37, %._crit_edge.loopexit ], [ %38, %._crit_edge.loopexit54 ], [ %39, %._crit_edge.loopexit55 ]
  %40 = sext i32 %.037.lcssa to i64
  %41 = getelementptr inbounds i8, ptr %6, i64 %40
  %42 = sub nsw i32 1024, %.037.lcssa
  %43 = sext i32 %42 to i64
  %44 = getelementptr inbounds nuw double, ptr %3, i64 %indvars.iv74
  %45 = load double, ptr %44, align 8, !tbaa !22
  %46 = fcmp oge double %45, 0.000000e+00
  %47 = select i1 %46, ptr @.str.64, ptr @.str.65
  %48 = call i32 (ptr, i64, ptr, ...) @snprintf(ptr noundef nonnull %41, i64 noundef %43, ptr noundef nonnull %47, double noundef %45) #16
  %49 = add nsw i32 %48, %.037.lcssa
  %50 = icmp sgt i32 %49, 1023
  br i1 %50, label %61, label %62

.lr.ph.split:                                     ; preds = %.lr.ph, %.lr.ph.split
  %indvars.iv = phi i64 [ %indvars.iv.next, %.lr.ph.split ], [ %14, %.lr.ph ]
  %.044 = phi i32 [ %60, %.lr.ph.split ], [ 0, %.lr.ph ]
  %.03742 = phi i32 [ %.138, %.lr.ph.split ], [ 8, %.lr.ph ]
  %51 = sext i32 %.03742 to i64
  %52 = getelementptr inbounds i8, ptr %6, i64 %51
  %53 = sub nsw i32 1024, %.03742
  %54 = sext i32 %53 to i64
  %55 = icmp slt i32 %.044, %10
  %56 = select i1 %55, ptr @.str.62, ptr @.str.63
  %57 = getelementptr inbounds i64, ptr %2, i64 %indvars.iv
  %58 = load i64, ptr %57, align 8, !tbaa !25
  %59 = call i32 (ptr, i64, ptr, ...) @snprintf(ptr noundef nonnull %52, i64 noundef %54, ptr noundef nonnull %56, i32 noundef %.044, i64 noundef %58) #16
  %indvars.iv.next = add nsw i64 %indvars.iv, 1
  %.138 = add nsw i32 %59, %.03742
  %60 = add nuw nsw i32 %.044, 1
  %exitcond.not = icmp eq i32 %60, %1
  br i1 %exitcond.not, label %._crit_edge.loopexit55, label %.lr.ph.split

61:                                               ; preds = %._crit_edge
  call void @raiseQASMBufferOverflow(ptr noundef nonnull @__func__.addMultiVarOverridesToQASM) #16
  br label %62

62:                                               ; preds = %61, %._crit_edge
  %.sroa.3.0.copyload = load ptr, ptr %.sroa.3.0..sroa_idx, align 8
  %63 = load ptr, ptr %.sroa.3.0.copyload, align 8, !tbaa !18
  %64 = getelementptr inbounds nuw i8, ptr %.sroa.3.0.copyload, i64 8
  %65 = load i32, ptr %64, align 8, !tbaa !17
  %66 = getelementptr inbounds nuw i8, ptr %.sroa.3.0.copyload, i64 12
  %67 = load i32, ptr %66, align 4, !tbaa !20
  %68 = add nsw i32 %67, %49
  %69 = icmp sgt i32 %68, %65
  br i1 %69, label %70, label %addStringToQASM.exit

70:                                               ; preds = %62
  %71 = shl nsw i32 %65, 1
  %72 = icmp sgt i32 %68, %71
  br i1 %72, label %73, label %74

73:                                               ; preds = %70
  call void @raiseQASMBufferOverflow(ptr noundef nonnull @__func__.addStringToQASM) #16
  br label %74

74:                                               ; preds = %73, %70
  %75 = sext i32 %71 to i64
  %76 = call noalias ptr @malloc(i64 noundef %75) #15
  %strcpy.i = call ptr @strcpy(ptr noundef nonnull dereferenceable(1) %76, ptr noundef nonnull dereferenceable(1) %63)
  call void @free(ptr noundef %63) #16
  store i32 %71, ptr %64, align 8, !tbaa !17
  store ptr %76, ptr %.sroa.3.0.copyload, align 8, !tbaa !18
  br label %addStringToQASM.exit

addStringToQASM.exit:                             ; preds = %62, %74
  %.020.i = phi i32 [ %71, %74 ], [ %65, %62 ]
  %.0.i40 = phi ptr [ %76, %74 ], [ %63, %62 ]
  %77 = sext i32 %67 to i64
  %78 = getelementptr inbounds i8, ptr %.0.i40, i64 %77
  %79 = sub nsw i32 %.020.i, %67
  %80 = sext i32 %79 to i64
  %81 = call i32 (ptr, i64, ptr, ...) @snprintf(ptr noundef %78, i64 noundef %80, ptr noundef nonnull @.str.3, ptr noundef nonnull %6) #16
  %82 = load i32, ptr %66, align 4, !tbaa !20
  %83 = add nsw i32 %82, %81
  store i32 %83, ptr %66, align 4, !tbaa !20
  %indvars.iv.next75 = add nuw nsw i64 %indvars.iv74, 1
  %exitcond78.not = icmp eq i64 %indvars.iv.next75, %wide.trip.count77
  br i1 %exitcond78.not, label %._crit_edge53, label %13
}